; ModuleID = '21/466.c'
source_filename = "21/466.c"
target datalayout = "e-m:e-p270:32:32-p271:32:32-p272:64:64-i64:64-f80:128-n8:16:32:64-S128"
target triple = "x86_64-pc-linux-gnu"

@.str = private unnamed_addr constant [3 x i8] c"%d\00", align 1
@.str.1 = private unnamed_addr constant [4 x i8] c",%d\00", align 1

; Function Attrs: noinline nounwind uwtable
define dso_local void @main() #0 {
  %1 = alloca i32, align 4
  %2 = alloca [400 x i32], align 16
  %3 = alloca i32, align 4
  %4 = alloca [400 x i32], align 16
  %5 = alloca i32, align 4
  %6 = alloca i32, align 4
  %7 = alloca i32, align 4
  %8 = call i32 (i8*, ...) @__isoc99_scanf(i8* getelementptr inbounds ([3 x i8], [3 x i8]* @.str, i64 0, i64 0), i32* %3)
  store i32 0, i32* %5, align 4
  store i32 0, i32* %1, align 4
  br label %9

9:                                                ; preds = %18, %0
  %10 = load i32, i32* %1, align 4
  %11 = load i32, i32* %3, align 4
  %12 = icmp slt i32 %10, %11
  br i1 %12, label %13, label %21

13:                                               ; preds = %9
  %14 = load i32, i32* %1, align 4
  %15 = sext i32 %14 to i64
  %16 = getelementptr inbounds [400 x i32], [400 x i32]* %2, i64 0, i64 %15
  %17 = call i32 (i8*, ...) @__isoc99_scanf(i8* getelementptr inbounds ([3 x i8], [3 x i8]* @.str, i64 0, i64 0), i32* %16)
  br label %18

18:                                               ; preds = %13
  %19 = load i32, i32* %1, align 4
  %20 = add nsw i32 %19, 1
  store i32 %20, i32* %1, align 4
  br label %9

21:                                               ; preds = %9
  store i32 0, i32* %1, align 4
  br label %22

22:                                               ; preds = %33, %21
  %23 = load i32, i32* %1, align 4
  %24 = load i32, i32* %3, align 4
  %25 = icmp slt i32 %23, %24
  br i1 %25, label %26, label %36

26:                                               ; preds = %22
  %27 = load i32, i32* %5, align 4
  %28 = load i32, i32* %1, align 4
  %29 = sext i32 %28 to i64
  %30 = getelementptr inbounds [400 x i32], [400 x i32]* %2, i64 0, i64 %29
  %31 = load i32, i32* %30, align 4
  %32 = add nsw i32 %27, %31
  store i32 %32, i32* %5, align 4
  br label %33

33:                                               ; preds = %26
  %34 = load i32, i32* %1, align 4
  %35 = add nsw i32 %34, 1
  store i32 %35, i32* %1, align 4
  br label %22

36:                                               ; preds = %22
  store i32 0, i32* %1, align 4
  br label %37

37:                                               ; preds = %75, %36
  %38 = load i32, i32* %1, align 4
  %39 = load i32, i32* %3, align 4
  %40 = icmp slt i32 %38, %39
  br i1 %40, label %41, label %78

41:                                               ; preds = %37
  %42 = load i32, i32* %3, align 4
  %43 = load i32, i32* %1, align 4
  %44 = sext i32 %43 to i64
  %45 = getelementptr inbounds [400 x i32], [400 x i32]* %2, i64 0, i64 %44
  %46 = load i32, i32* %45, align 4
  %47 = mul nsw i32 %42, %46
  %48 = load i32, i32* %5, align 4
  %49 = icmp sge i32 %47, %48
  br i1 %49, label %50, label %62

50:                                               ; preds = %41
  %51 = load i32, i32* %3, align 4
  %52 = load i32, i32* %1, align 4
  %53 = sext i32 %52 to i64
  %54 = getelementptr inbounds [400 x i32], [400 x i32]* %2, i64 0, i64 %53
  %55 = load i32, i32* %54, align 4
  %56 = mul nsw i32 %51, %55
  %57 = load i32, i32* %5, align 4
  %58 = sub nsw i32 %56, %57
  %59 = load i32, i32* %1, align 4
  %60 = sext i32 %59 to i64
  %61 = getelementptr inbounds [400 x i32], [400 x i32]* %4, i64 0, i64 %60
  store i32 %58, i32* %61, align 4
  br label %74

62:                                               ; preds = %41
  %63 = load i32, i32* %5, align 4
  %64 = load i32, i32* %3, align 4
  %65 = load i32, i32* %1, align 4
  %66 = sext i32 %65 to i64
  %67 = getelementptr inbounds [400 x i32], [400 x i32]* %2, i64 0, i64 %66
  %68 = load i32, i32* %67, align 4
  %69 = mul nsw i32 %64, %68
  %70 = sub nsw i32 %63, %69
  %71 = load i32, i32* %1, align 4
  %72 = sext i32 %71 to i64
  %73 = getelementptr inbounds [400 x i32], [400 x i32]* %4, i64 0, i64 %72
  store i32 %70, i32* %73, align 4
  br label %74

74:                                               ; preds = %62, %50
  br label %75

75:                                               ; preds = %74
  %76 = load i32, i32* %1, align 4
  %77 = add nsw i32 %76, 1
  store i32 %77, i32* %1, align 4
  br label %37

78:                                               ; preds = %37
  %79 = getelementptr inbounds [400 x i32], [400 x i32]* %4, i64 0, i64 0
  %80 = load i32, i32* %79, align 16
  store i32 %80, i32* %6, align 4
  store i32 1, i32* %1, align 4
  br label %81

81:                                               ; preds = %98, %78
  %82 = load i32, i32* %1, align 4
  %83 = load i32, i32* %3, align 4
  %84 = icmp slt i32 %82, %83
  br i1 %84, label %85, label %101

85:                                               ; preds = %81
  %86 = load i32, i32* %1, align 4
  %87 = sext i32 %86 to i64
  %88 = getelementptr inbounds [400 x i32], [400 x i32]* %4, i64 0, i64 %87
  %89 = load i32, i32* %88, align 4
  %90 = load i32, i32* %6, align 4
  %91 = icmp sgt i32 %89, %90
  br i1 %91, label %92, label %97

92:                                               ; preds = %85
  %93 = load i32, i32* %1, align 4
  %94 = sext i32 %93 to i64
  %95 = getelementptr inbounds [400 x i32], [400 x i32]* %4, i64 0, i64 %94
  %96 = load i32, i32* %95, align 4
  store i32 %96, i32* %6, align 4
  br label %97

97:                                               ; preds = %92, %85
  br label %98

98:                                               ; preds = %97
  %99 = load i32, i32* %1, align 4
  %100 = add nsw i32 %99, 1
  store i32 %100, i32* %1, align 4
  br label %81

101:                                              ; preds = %81
  store i32 0, i32* %7, align 4
  store i32 0, i32* %1, align 4
  br label %102

102:                                              ; preds = %139, %101
  %103 = load i32, i32* %1, align 4
  %104 = load i32, i32* %3, align 4
  %105 = icmp slt i32 %103, %104
  br i1 %105, label %106, label %142

106:                                              ; preds = %102
  %107 = load i32, i32* %1, align 4
  %108 = sext i32 %107 to i64
  %109 = getelementptr inbounds [400 x i32], [400 x i32]* %4, i64 0, i64 %108
  %110 = load i32, i32* %109, align 4
  %111 = load i32, i32* %6, align 4
  %112 = icmp eq i32 %110, %111
  br i1 %112, label %113, label %122

113:                                              ; preds = %106
  %114 = load i32, i32* %7, align 4
  %115 = icmp eq i32 %114, 1
  br i1 %115, label %116, label %122

116:                                              ; preds = %113
  %117 = load i32, i32* %1, align 4
  %118 = sext i32 %117 to i64
  %119 = getelementptr inbounds [400 x i32], [400 x i32]* %2, i64 0, i64 %118
  %120 = load i32, i32* %119, align 4
  %121 = call i32 (i8*, ...) @printf(i8* getelementptr inbounds ([4 x i8], [4 x i8]* @.str.1, i64 0, i64 0), i32 %120)
  br label %122

122:                                              ; preds = %116, %113, %106
  %123 = load i32, i32* %1, align 4
  %124 = sext i32 %123 to i64
  %125 = getelementptr inbounds [400 x i32], [400 x i32]* %4, i64 0, i64 %124
  %126 = load i32, i32* %125, align 4
  %127 = load i32, i32* %6, align 4
  %128 = icmp eq i32 %126, %127
  br i1 %128, label %129, label %138

129:                                              ; preds = %122
  %130 = load i32, i32* %7, align 4
  %131 = icmp eq i32 %130, 0
  br i1 %131, label %132, label %138

132:                                              ; preds = %129
  %133 = load i32, i32* %1, align 4
  %134 = sext i32 %133 to i64
  %135 = getelementptr inbounds [400 x i32], [400 x i32]* %2, i64 0, i64 %134
  %136 = load i32, i32* %135, align 4
  %137 = call i32 (i8*, ...) @printf(i8* getelementptr inbounds ([3 x i8], [3 x i8]* @.str, i64 0, i64 0), i32 %136)
  store i32 1, i32* %7, align 4
  br label %138

138:                                              ; preds = %132, %129, %122
  br label %139

139:                                              ; preds = %138
  %140 = load i32, i32* %1, align 4
  %141 = add nsw i32 %140, 1
  store i32 %141, i32* %1, align 4
  br label %102

142:                                              ; preds = %102
  ret void
}

declare dso_local i32 @__isoc99_scanf(i8*, ...) #1

declare dso_local i32 @printf(i8*, ...) #1


!llvm.module.flags = !{!0}
!llvm.ident = !{!1}

!0 = !{i32 1, !"wchar_size", i32 4}
!1 = !{!"clang version 10.0.0-4ubuntu1 "}
